; Function Attrs: nounwind uwtable
define ptr @l_Lean_MVarId_change___boxed(ptr noundef %0, ptr noundef %1, ptr noundef %2, ptr noundef %3, ptr noundef %4, ptr noundef %5, ptr noundef %6, ptr noundef %7) local_unnamed_addr #0 {
  %9 = ptrtoint ptr %2 to i64
  %10 = and i64 %9, 1
  %.not = icmp eq i64 %10, 0
  br i1 %.not, label %11, label %lean_dec.exit

11:                                               ; preds = %8
  %12 = load i32, ptr %2, align 4, !tbaa !4
  %13 = icmp sgt i32 %12, 1
  br i1 %13, label %14, label %16, !prof !9

14:                                               ; preds = %11
  %15 = add nsw i32 %12, -1
  store i32 %15, ptr %2, align 4, !tbaa !4
  br label %lean_dec.exit

16:                                               ; preds = %11
  %.not.i = icmp eq i32 %12, 0
  br i1 %.not.i, label %lean_dec.exit, label %17

17:                                               ; preds = %16
  tail call void @lean_dec_ref_cold(ptr noundef nonnull %2) #4
  br label %lean_dec.exit

lean_dec.exit:                                    ; preds = %17, %16, %14, %8
  %18 = ptrtoint ptr %0 to i64
  %19 = and i64 %18, 1
  %.not.i10 = icmp eq i64 %19, 0
  br i1 %.not.i10, label %20, label %lean_inc.exit.i

20:                                               ; preds = %lean_dec.exit
  %.val.i.i = load i32, ptr %0, align 4, !tbaa !4
  %21 = icmp sgt i32 %.val.i.i, 0
  br i1 %21, label %22, label %24, !prof !9

22:                                               ; preds = %20
  %23 = add nuw i32 %.val.i.i, 1
  store i32 %23, ptr %0, align 4, !tbaa !4
  br label %lean_inc.exit.i

24:                                               ; preds = %20
  %.not.i.i = icmp eq i32 %.val.i.i, 0
  br i1 %.not.i.i, label %lean_inc.exit.i, label %25

25:                                               ; preds = %24
  tail call void @lean_inc_ref_cold(ptr noundef nonnull %0) #4
  br label %lean_inc.exit.i

lean_inc.exit.i:                                  ; preds = %25, %24, %22, %lean_dec.exit
  tail call void @lean_inc_heartbeat() #4
  %26 = tail call noalias ptr @mi_malloc_small(i64 noundef 48) #4
  %27 = icmp eq ptr %26, null
  br i1 %27, label %28, label %l_Lean_MVarId_change.exit

28:                                               ; preds = %lean_inc.exit.i
  tail call void @lean_internal_panic_out_of_memory() #5
  unreachable

l_Lean_MVarId_change.exit:                        ; preds = %lean_inc.exit.i
  %29 = and i64 %9, 510
  %30 = or disjoint i64 %29, 1
  %31 = inttoptr i64 %30 to ptr
  %32 = getelementptr inbounds nuw i8, ptr %26, i64 4
  store i32 1, ptr %26, align 4, !tbaa !4
  store i32 -184549328, ptr %32, align 4
  %33 = getelementptr inbounds nuw i8, ptr %26, i64 8
  store ptr @l_Lean_MVarId_change___lambda__2___boxed, ptr %33, align 8, !tbaa !10
  %34 = getelementptr inbounds nuw i8, ptr %26, i64 16
  store i16 8, ptr %34, align 8, !tbaa !14
  %35 = getelementptr inbounds nuw i8, ptr %26, i64 18
  store i16 3, ptr %35, align 2, !tbaa !14
  %36 = getelementptr inbounds nuw i8, ptr %26, i64 24
  store ptr %0, ptr %36, align 8, !tbaa !10
  %37 = getelementptr inbounds nuw i8, ptr %26, i64 32
  store ptr %1, ptr %37, align 8, !tbaa !10
  %38 = getelementptr inbounds nuw i8, ptr %26, i64 40
  store ptr %31, ptr %38, align 8, !tbaa !10
  %39 = tail call ptr @l_Lean_MVarId_withContext___at___private_Lean_Meta_SynthInstance_0__Lean_Meta_synthPendingImp___spec__2___rarg(ptr noundef %0, ptr noundef nonnull %26, ptr noundef %3, ptr noundef %4, ptr noundef %5, ptr noundef %6, ptr noundef %7) #4
  ret ptr %39
}